ccopy_reg
_reconstructor
p0
(cbst_class
bst
p1
c__builtin__
object
p2
Ntp3
Rp4
(dp5
S'root'
p6
g0
(cbst_class
bst_node
p7
g2
Ntp8
Rp9
(dp10
S'p'
p11
NsS'right'
p12
g0
(g7
g2
Ntp13
Rp14
(dp15
g11
Nsg12
g0
(g7
g2
Ntp16
Rp17
(dp18
g11
Nsg12
g0
(g7
g2
Ntp19
Rp20
(dp21
g11
Nsg12
g0
(g7
g2
Ntp22
Rp23
(dp24
g11
Nsg12
g0
(g7
g2
Ntp25
Rp26
(dp27
g11
Nsg12
NsS'parent'
p28
g23
sS'key'
p29
I99
sS'left'
p30
Nsbsg28
g20
sg29
I94
sg30
g0
(g7
g2
Ntp31
Rp32
(dp33
g11
Nsg12
Nsg28
g23
sg29
I94
sg30
g0
(g7
g2
Ntp34
Rp35
(dp36
g11
Nsg12
Nsg28
g32
sg29
I94
sg30
g0
(g7
g2
Ntp37
Rp38
(dp39
g11
Nsg12
g0
(g7
g2
Ntp40
Rp41
(dp42
g11
Nsg12
Nsg28
g38
sg29
I94
sg30
g0
(g7
g2
Ntp43
Rp44
(dp45
g11
Nsg12
Nsg28
g41
sg29
I92
sg30
g0
(g7
g2
Ntp46
Rp47
(dp48
g11
Nsg12
g0
(g7
g2
Ntp49
Rp50
(dp51
g11
Nsg12
Nsg28
g47
sg29
I92
sg30
Nsbsg28
g44
sg29
I89
sg30
Nsbsbsbsg28
g35
sg29
I86
sg30
g0
(g7
g2
Ntp52
Rp53
(dp54
g11
Nsg12
Nsg28
g38
sg29
I85
sg30
g0
(g7
g2
Ntp55
Rp56
(dp57
g11
Nsg12
Nsg28
g53
sg29
I84
sg30
Nsbsbsbsbsbsbsg28
g17
sg29
I83
sg30
Nsbsg28
g14
sg29
I82
sg30
g0
(g7
g2
Ntp58
Rp59
(dp60
g11
Nsg12
g0
(g7
g2
Ntp61
Rp62
(dp63
g11
Nsg12
Nsg28
g59
sg29
I79
sg30
g0
(g7
g2
Ntp64
Rp65
(dp66
g11
Nsg12
Nsg28
g62
sg29
I78
sg30
g0
(g7
g2
Ntp67
Rp68
(dp69
g11
Nsg12
Nsg28
g65
sg29
I78
sg30
g0
(g7
g2
Ntp70
Rp71
(dp72
g11
Nsg12
Nsg28
g68
sg29
I78
sg30
g0
(g7
g2
Ntp73
Rp74
(dp75
g11
Nsg12
Nsg28
g71
sg29
I72
sg30
Nsbsbsbsbsbsg28
g17
sg29
I69
sg30
g0
(g7
g2
Ntp76
Rp77
(dp78
g11
Nsg12
g0
(g7
g2
Ntp79
Rp80
(dp81
g11
Nsg12
g0
(g7
g2
Ntp82
Rp83
(dp84
g11
Nsg12
Nsg28
g80
sg29
I69
sg30
g0
(g7
g2
Ntp85
Rp86
(dp87
g11
Nsg12
Nsg28
g83
sg29
I68
sg30
Nsbsbsg28
g77
sg29
I66
sg30
g0
(g7
g2
Ntp88
Rp89
(dp90
g11
Nsg12
g0
(g7
g2
Ntp91
Rp92
(dp93
g11
Nsg12
g0
(g7
g2
Ntp94
Rp95
(dp96
g11
Nsg12
Nsg28
g92
sg29
I66
sg30
Nsbsg28
g89
sg29
I63
sg30
g0
(g7
g2
Ntp97
Rp98
(dp99
g11
Nsg12
Nsg28
g92
sg29
I58
sg30
Nsbsbsg28
g80
sg29
I54
sg30
Nsbsbsg28
g59
sg29
I52
sg30
g0
(g7
g2
Ntp100
Rp101
(dp102
g11
Nsg12
Nsg28
g77
sg29
I52
sg30
g0
(g7
g2
Ntp103
Rp104
(dp105
g11
Nsg12
g0
(g7
g2
Ntp106
Rp107
(dp108
g11
Nsg12
Nsg28
g104
sg29
I48
sg30
Nsbsg28
g101
sg29
I47
sg30
Nsbsbsbsbsbsg28
g9
sg29
I41
sg30
g0
(g7
g2
Ntp109
Rp110
(dp111
g11
Nsg12
Nsg28
g14
sg29
I35
sg30
Nsbsbsg29
I33
sg30
g0
(g7
g2
Ntp112
Rp113
(dp114
g11
Nsg12
g0
(g7
g2
Ntp115
Rp116
(dp117
g11
Nsg12
g0
(g7
g2
Ntp118
Rp119
(dp120
g11
Nsg12
Nsg28
g116
sg29
I30
sg30
g0
(g7
g2
Ntp121
Rp122
(dp123
g11
Nsg12
Nsg28
g119
sg29
I29
sg30
Nsbsbsg28
g113
sg29
I28
sg30
g0
(g7
g2
Ntp124
Rp125
(dp126
g11
Nsg12
g0
(g7
g2
Ntp127
Rp128
(dp129
g11
Nsg12
g0
(g7
g2
Ntp130
Rp131
(dp132
g11
Nsg12
Nsg28
g128
sg29
I26
sg30
Nsbsg28
g125
sg29
I21
sg30
g0
(g7
g2
Ntp133
Rp134
(dp135
g11
Nsg12
Nsg28
g128
sg29
I17
sg30
g0
(g7
g2
Ntp136
Rp137
(dp138
g11
Nsg12
Nsg28
g134
sg29
I13
sg30
Nsbsbsbsg28
g116
sg29
I12
sg30
g0
(g7
g2
Ntp139
Rp140
(dp141
g11
Nsg12
Nsg28
g125
sg29
I12
sg30
Nsbsbsbsg28
g9
sg29
I9
sg30
g0
(g7
g2
Ntp142
Rp143
(dp144
g11
Nsg12
g0
(g7
g2
Ntp145
Rp146
(dp147
g11
Nsg12
Nsg28
g143
sg29
I9
sg30
g0
(g7
g2
Ntp148
Rp149
(dp150
g11
Nsg12
g0
(g7
g2
Ntp151
Rp152
(dp153
g11
Nsg12
Nsg28
g149
sg29
I9
sg30
Nsbsg28
g146
sg29
I5
sg30
Nsbsbsg28
g113
sg29
I4
sg30
g0
(g7
g2
Ntp154
Rp155
(dp156
g11
Nsg12
g0
(g7
g2
Ntp157
Rp158
(dp159
g11
Nsg12
Nsg28
g155
sg29
I4
sg30
Nsbsg28
g143
sg29
I2
sg30
g0
(g7
g2
Ntp160
Rp161
(dp162
g11
Nsg12
Nsg28
g155
sg29
I2
sg30
NsbsbsbsbsbsS'klass'
p163
g7
sb.